; Function Attrs: mustprogress nofree norecurse nosync nounwind willreturn memory(argmem: read) uwtable
define noundef i32 @_ZNK6icu_7511MeasureUnit9getOffsetEv(ptr nocapture noundef nonnull readonly align 8 dereferenceable(19) %this) local_unnamed_addr #10 align 2 {
entry:
  %fTypeId = getelementptr inbounds i8, ptr %this, i64 18
  %0 = load i8, ptr %fTypeId, align 2
  %cmp = icmp slt i8 %0, 0
  br i1 %cmp, label %return, label %lor.lhs.false

lor.lhs.false:                                    ; preds = %entry
  %fSubTypeId = getelementptr inbounds i8, ptr %this, i64 16
  %1 = load i16, ptr %fSubTypeId, align 8
  %cmp3 = icmp slt i16 %1, 0
  br i1 %cmp3, label %return, label %if.end

if.end:                                           ; preds = %lor.lhs.false
  %conv2 = zext nneg i16 %1 to i32
  %idxprom = zext nneg i8 %0 to i64
  %arrayidx = getelementptr inbounds [24 x i32], ptr @_ZN6icu_75L8gOffsetsE, i64 0, i64 %idxprom
  %2 = load i32, ptr %arrayidx, align 4
  %add = add nsw i32 %2, %conv2
  br label %return

return:                                           ; preds = %entry, %lor.lhs.false, %if.end
  %retval.0 = phi i32 [ %add, %if.end ], [ -1, %lor.lhs.false ], [ -1, %entry ]
  ret i32 %retval.0
}